(dp0
S'HTTP_ACCEPT'
p1
S'text/html,application/xhtml+xml,application/xml;q=0.9,*/*;q=0.8'
p2
sS'PATH_TRANSLATED'
p3
S'/usr/bin/python'
p4
sS'HTTP_USER_AGENT'
p5
S'Mozilla/5.0 (X11; Ubuntu; Linux x86_64; rv:31.0) Gecko/20100101 Firefox/31.0'
p6
sS'HTTP_CONNECTION'
p7
S'keep-alive'
p8
sS'REMOTE_PORT'
p9
S'55383'
p10
sS'SERVER_NAME'
p11
S'127.0.0.1'
p12
sS'GATEWAY_INTERFACE'
p13
S'CGI/1.1'
p14
sS'HTTP_ACCEPT_LANGUAGE'
p15
S'en-US,en;q=0.5'
p16
sS'REDIRECT_STATUS'
p17
S'200'
p18
sS'REMOTE_ADDR'
p19
S'127.0.0.1'
p20
sS'SERVER_SOFTWARE'
p21
S'Mongoose/99'
p22
sS'SCRIPT_NAME'
p23
S'/tg/login'
p24
sS'REQUEST_METHOD'
p25
S'GET'
p26
sS'HTTP_HOST'
p27
S'localhost:8080'
p28
sS'PATH_INFO'
p29
S'/tg/login'
p30
sS'SERVER_PORT'
p31
S'55383'
p32
sS'SERVER_PROTOCOL'
p33
S'HTTP/1.1'
p34
sS'HTTP_ACCEPT_ENCODING'
p35
S'gzip, deflate'
p36
sS'REQUEST_URI'
p37
S'/tg/login'
p38
s.